target datalayout = "e-m:e-p270:32:32-p271:32:32-p272:64:64-i64:64-i128:128-f80:128-n8:16:32:64-S128"
target triple = "x86_64-pc-linux-gnu"

%struct.Vector2 = type { float, float }

; Function Attrs: nounwind uwtable
define zeroext i1 @CheckCollisionPointTriangle(<2 x float> %0, <2 x float> %1, <2 x float> %2, <2 x float> %3) #0 {
  %5 = alloca %struct.Vector2, align 4
  %6 = alloca %struct.Vector2, align 4
  %7 = alloca %struct.Vector2, align 4
  %8 = alloca %struct.Vector2, align 4
  %9 = alloca i8, align 1
  %10 = alloca float, align 4
  %11 = alloca float, align 4
  %12 = alloca float, align 4
  store <2 x float> %0, ptr %5, align 4
  store <2 x float> %1, ptr %6, align 4
  store <2 x float> %2, ptr %7, align 4
  store <2 x float> %3, ptr %8, align 4
  call void @llvm.lifetime.start.p0(i64 1, ptr %9) #8
  store i8 0, ptr %9, align 1
  call void @llvm.lifetime.start.p0(i64 4, ptr %10) #8
  %13 = getelementptr inbounds nuw %struct.Vector2, ptr %7, i32 0, i32 1
  %14 = load float, ptr %13, align 4
  %15 = getelementptr inbounds nuw %struct.Vector2, ptr %8, i32 0, i32 1
  %16 = load float, ptr %15, align 4
  %17 = fsub float %14, %16
  %18 = getelementptr inbounds nuw %struct.Vector2, ptr %5, i32 0, i32 0
  %19 = load float, ptr %18, align 4
  %20 = getelementptr inbounds nuw %struct.Vector2, ptr %8, i32 0, i32 0
  %21 = load float, ptr %20, align 4
  %22 = fsub float %19, %21
  %23 = getelementptr inbounds nuw %struct.Vector2, ptr %8, i32 0, i32 0
  %24 = load float, ptr %23, align 4
  %25 = getelementptr inbounds nuw %struct.Vector2, ptr %7, i32 0, i32 0
  %26 = load float, ptr %25, align 4
  %27 = fsub float %24, %26
  %28 = getelementptr inbounds nuw %struct.Vector2, ptr %5, i32 0, i32 1
  %29 = load float, ptr %28, align 4
  %30 = getelementptr inbounds nuw %struct.Vector2, ptr %8, i32 0, i32 1
  %31 = load float, ptr %30, align 4
  %32 = fsub float %29, %31
  %33 = fmul float %27, %32
  %34 = call float @llvm.fmuladd.f32(float %17, float %22, float %33)
  %35 = getelementptr inbounds nuw %struct.Vector2, ptr %7, i32 0, i32 1
  %36 = load float, ptr %35, align 4
  %37 = getelementptr inbounds nuw %struct.Vector2, ptr %8, i32 0, i32 1
  %38 = load float, ptr %37, align 4
  %39 = fsub float %36, %38
  %40 = getelementptr inbounds nuw %struct.Vector2, ptr %6, i32 0, i32 0
  %41 = load float, ptr %40, align 4
  %42 = getelementptr inbounds nuw %struct.Vector2, ptr %8, i32 0, i32 0
  %43 = load float, ptr %42, align 4
  %44 = fsub float %41, %43
  %45 = getelementptr inbounds nuw %struct.Vector2, ptr %8, i32 0, i32 0
  %46 = load float, ptr %45, align 4
  %47 = getelementptr inbounds nuw %struct.Vector2, ptr %7, i32 0, i32 0
  %48 = load float, ptr %47, align 4
  %49 = fsub float %46, %48
  %50 = getelementptr inbounds nuw %struct.Vector2, ptr %6, i32 0, i32 1
  %51 = load float, ptr %50, align 4
  %52 = getelementptr inbounds nuw %struct.Vector2, ptr %8, i32 0, i32 1
  %53 = load float, ptr %52, align 4
  %54 = fsub float %51, %53
  %55 = fmul float %49, %54
  %56 = call float @llvm.fmuladd.f32(float %39, float %44, float %55)
  %57 = fdiv float %34, %56
  store float %57, ptr %10, align 4
  call void @llvm.lifetime.start.p0(i64 4, ptr %11) #8
  %58 = getelementptr inbounds nuw %struct.Vector2, ptr %8, i32 0, i32 1
  %59 = load float, ptr %58, align 4
  %60 = getelementptr inbounds nuw %struct.Vector2, ptr %6, i32 0, i32 1
  %61 = load float, ptr %60, align 4
  %62 = fsub float %59, %61
  %63 = getelementptr inbounds nuw %struct.Vector2, ptr %5, i32 0, i32 0
  %64 = load float, ptr %63, align 4
  %65 = getelementptr inbounds nuw %struct.Vector2, ptr %8, i32 0, i32 0
  %66 = load float, ptr %65, align 4
  %67 = fsub float %64, %66
  %68 = getelementptr inbounds nuw %struct.Vector2, ptr %6, i32 0, i32 0
  %69 = load float, ptr %68, align 4
  %70 = getelementptr inbounds nuw %struct.Vector2, ptr %8, i32 0, i32 0
  %71 = load float, ptr %70, align 4
  %72 = fsub float %69, %71
  %73 = getelementptr inbounds nuw %struct.Vector2, ptr %5, i32 0, i32 1
  %74 = load float, ptr %73, align 4
  %75 = getelementptr inbounds nuw %struct.Vector2, ptr %8, i32 0, i32 1
  %76 = load float, ptr %75, align 4
  %77 = fsub float %74, %76
  %78 = fmul float %72, %77
  %79 = call float @llvm.fmuladd.f32(float %62, float %67, float %78)
  %80 = getelementptr inbounds nuw %struct.Vector2, ptr %7, i32 0, i32 1
  %81 = load float, ptr %80, align 4
  %82 = getelementptr inbounds nuw %struct.Vector2, ptr %8, i32 0, i32 1
  %83 = load float, ptr %82, align 4
  %84 = fsub float %81, %83
  %85 = getelementptr inbounds nuw %struct.Vector2, ptr %6, i32 0, i32 0
  %86 = load float, ptr %85, align 4
  %87 = getelementptr inbounds nuw %struct.Vector2, ptr %8, i32 0, i32 0
  %88 = load float, ptr %87, align 4
  %89 = fsub float %86, %88
  %90 = getelementptr inbounds nuw %struct.Vector2, ptr %8, i32 0, i32 0
  %91 = load float, ptr %90, align 4
  %92 = getelementptr inbounds nuw %struct.Vector2, ptr %7, i32 0, i32 0
  %93 = load float, ptr %92, align 4
  %94 = fsub float %91, %93
  %95 = getelementptr inbounds nuw %struct.Vector2, ptr %6, i32 0, i32 1
  %96 = load float, ptr %95, align 4
  %97 = getelementptr inbounds nuw %struct.Vector2, ptr %8, i32 0, i32 1
  %98 = load float, ptr %97, align 4
  %99 = fsub float %96, %98
  %100 = fmul float %94, %99
  %101 = call float @llvm.fmuladd.f32(float %84, float %89, float %100)
  %102 = fdiv float %79, %101
  store float %102, ptr %11, align 4
  call void @llvm.lifetime.start.p0(i64 4, ptr %12) #8
  %103 = load float, ptr %10, align 4
  %104 = fsub float 1.000000e+00, %103
  %105 = load float, ptr %11, align 4
  %106 = fsub float %104, %105
  store float %106, ptr %12, align 4
  %107 = load float, ptr %10, align 4
  %108 = fcmp ogt float %107, 0.000000e+00
  br i1 %108, label %109, label %116

109:                                              ; preds = %4
  %110 = load float, ptr %11, align 4
  %111 = fcmp ogt float %110, 0.000000e+00
  br i1 %111, label %112, label %116

112:                                              ; preds = %109
  %113 = load float, ptr %12, align 4
  %114 = fcmp ogt float %113, 0.000000e+00
  br i1 %114, label %115, label %116

115:                                              ; preds = %112
  store i8 1, ptr %9, align 1
  br label %116

116:                                              ; preds = %115, %112, %109, %4
  %117 = load i8, ptr %9, align 1, !range !3, !noundef !4
  %118 = trunc i8 %117 to i1
  call void @llvm.lifetime.end.p0(i64 4, ptr %12) #8
  call void @llvm.lifetime.end.p0(i64 4, ptr %11) #8
  call void @llvm.lifetime.end.p0(i64 4, ptr %10) #8
  call void @llvm.lifetime.end.p0(i64 1, ptr %9) #8
  ret i1 %118
}