; Function Attrs: mustprogress nofree norecurse nosync nounwind willreturn memory(none) uwtable
define zeroext i1 @CheckCollisionPointTriangle(<2 x float> %0, <2 x float> %1, <2 x float> %2, <2 x float> %3) local_unnamed_addr #11 {
  %.sroa.0.4.vec.extract = extractelement <2 x float> %3, i64 1
  %5 = fsub <2 x float> %2, %3
  %6 = extractelement <2 x float> %5, i64 1
  %7 = fsub <2 x float> %0, %3
  %8 = extractelement <2 x float> %7, i64 0
  %9 = fsub <2 x float> %3, %2
  %10 = extractelement <2 x float> %9, i64 0
  %11 = fsub <2 x float> %0, %3
  %12 = extractelement <2 x float> %11, i64 1
  %13 = fmul float %10, %12
  %14 = tail call float @llvm.fmuladd.f32(float %6, float %8, float %13)
  %15 = fsub <2 x float> %1, %3
  %16 = extractelement <2 x float> %15, i64 0
  %.sroa.045.4.vec.extract = extractelement <2 x float> %1, i64 1
  %17 = fsub float %.sroa.045.4.vec.extract, %.sroa.0.4.vec.extract
  %18 = fmul float %10, %17
  %19 = tail call float @llvm.fmuladd.f32(float %6, float %16, float %18)
  %20 = fdiv float %14, %19
  %21 = fsub float %.sroa.0.4.vec.extract, %.sroa.045.4.vec.extract
  %22 = fmul float %16, %12
  %23 = tail call float @llvm.fmuladd.f32(float %21, float %8, float %22)
  %24 = fdiv float %23, %19
  %25 = fsub float 1.000000e+00, %20
  %26 = fcmp ogt float %20, 0.000000e+00
  %27 = fcmp ogt float %24, 0.000000e+00
  %28 = fcmp ogt float %25, %24
  %29 = and i1 %27, %28
  %or.cond3 = select i1 %26, i1 %29, i1 false
  ret i1 %or.cond3
}